; Function Attrs: mustprogress nofree norecurse nosync nounwind willreturn memory(readwrite, inaccessiblemem: none) uwtable
define internal void @_ZN6OctreeIfE14_solveSystemCGILi2EL12BoundaryType2E16FEMSystemFunctorILi2ELS2_2EELb0EEEiRKT1_RK11BSplineDataIXT_EXT0_EEPNS0_17InterpolationInfoIXT2_EEEiR13DenseNodeDataIfXT_EESH_SH_ibRNS0_12_SolverStatsEbd.omp_outlined.97.omp.reduction.reduction_func(ptr nocapture noundef readonly %0, ptr nocapture noundef readonly %1) #33 {
  %3 = load ptr, ptr %1, align 8
  %4 = load ptr, ptr %0, align 8
  %5 = load double, ptr %4, align 8
  %6 = load double, ptr %3, align 8
  %7 = fadd double %5, %6
  store double %7, ptr %4, align 8
  ret void
}